(lp1
S'abandoned_asylum'
p2
aS'abandoned_building'
p3
aS'abandoned_cemetery'
p4
aS'abandoned_decay'
p5
aS'abandoned_factory'
p6
aS'abandoned_hospitals'
p7
aS'abandoned_house'
p8
aS'abandoned_industry'
p9
aS'abandoned_office'
p10
aS'abandoned_places'
p11
aS'abandoned_rain'
p12
aS'abandoned_school'
p13
aS'abandoned_ship'
p14
aS'abused_children'
p15
aS'abused_woman'
p16
aS'adorable_baby'
p17
aS'adorable_cat'
p18
aS'adorable_child'
p19
aS'adorable_dog'
p20
aS'adorable_dress'
p21
aS'adorable_face'
p22
aS'adorable_girls'
p23
aS'adorable_kitty'
p24
aS'adorable_pets'
p25
aS'adorable_puppy'
p26
aS'adorable_smile'
p27
aS'aggressive_bird'
p28
aS'aggressive_dog'
p29
aS'amazing_animals'
p30
aS'amazing_architecture'
p31
aS'amazing_cake'
p32
aS'amazing_cars'
p33
aS'amazing_clouds'
p34
aS'amazing_flowers'
p35
aS'amazing_nature'
p36
aS'amazing_race'
p37
aS'amazing_scenery'
p38
aS'amazing_sky'
p39
aS'amazing_sunset'
p40
aS'amazing_talent'
p41
aS'amazing_trees'
p42
aS'amazing_view'
p43
aS'ancient_architecture'
p44
aS'ancient_beauty'
p45
aS'ancient_bridge'
p46
aS'ancient_building'
p47
aS'ancient_castle'
p48
aS'ancient_church'
p49
aS'ancient_city'
p50
aS'ancient_forest'
p51
aS'ancient_history'
p52
aS'ancient_house'
p53
aS'ancient_monument'
p54
aS'ancient_sculpture'
p55
aS'ancient_street'
p56
aS'ancient_trees'
p57
aS'angry_bull'
p58
aS'angry_cat'
p59
aS'angry_chicken'
p60
aS'angry_dog'
p61
aS'angry_eyes'
p62
aS'angry_face'
p63
aS'angry_men'
p64
aS'angry_monkey'
p65
aS'angry_pig'
p66
aS'annoying_cat'
p67
aS'annoying_guy'
p68
aS'annoying_noise'
p69
aS'attractive_birds'
p70
aS'attractive_face'
p71
aS'attractive_flowers'
p72
aS'attractive_girls'
p73
aS'attractive_lady'
p74
aS'awesome_animals'
p75
aS'awesome_birds'
p76
aS'awesome_cake'
p77
aS'awesome_cars'
p78
aS'awesome_clouds'
p79
aS'awesome_design'
p80
aS'awesome_flowers'
p81
aS'awesome_hair'
p82
aS'awesome_nature'
p83
aS'awesome_night'
p84
aS'awesome_scene'
p85
aS'awesome_sunset'
p86
aS'awesome_trip'
p87
aS'awesome_view'
p88
aS'bad_accident'
p89
aS'bad_car'
p90
aS'bad_cat'
p91
aS'bad_dog'
p92
aS'bad_eye'
p93
aS'bad_girls'
p94
aS'bad_graffiti'
p95
aS'bad_guy'
p96
aS'bad_hair'
p97
aS'bad_sign'
p98
aS'bad_storm'
p99
aS'bad_teeth'
p100
aS'bad_view'
p101
aS'barking_dog'
p102
aS'beautiful_bird'
p103
aS'beautiful_clouds'
p104
aS'beautiful_earth'
p105
aS'beautiful_eyes'
p106
aS'beautiful_flower'
p107
aS'beautiful_girl'
p108
aS'beautiful_landscape'
p109
aS'beautiful_nature'
p110
aS'beautiful_night'
p111
aS'beautiful_sky'
p112
aS'beautiful_smile'
p113
aS'beautiful_spring'
p114
aS'beautiful_sunset'
p115
aS'beautiful_view'
p116
aS'bitter_tears'
p117
aS'bloody_eyes'
p118
aS'bloody_hands'
p119
aS'bloody_mouth'
p120
aS'bloody_murder'
p121
aS'bloody_zombie'
p122
aS'brave_face'
p123
aS'brave_fight'
p124
aS'brave_heroes'
p125
aS'brave_kid'
p126
aS'brave_volunteers'
p127
aS'bright_angel'
p128
aS'bright_autumn'
p129
aS'bright_city'
p130
aS'bright_eyes'
p131
aS'bright_lights'
p132
aS'bright_moon'
p133
aS'bright_morning'
p134
aS'bright_rainbow'
p135
aS'bright_sky'
p136
aS'bright_stars'
p137
aS'bright_street'
p138
aS'bright_sun'
p139
aS'bright_sunlight'
p140
aS'bright_sunset'
p141
aS'broken_bones'
p142
aS'broken_bridge'
p143
aS'broken_car'
p144
aS'broken_chair'
p145
aS'broken_computer'
p146
aS'broken_fence'
p147
aS'broken_glass'
p148
aS'broken_ice'
p149
aS'broken_mirror'
p150
aS'broken_teeth'
p151
aS'broken_tree'
p152
aS'broken_wall'
p153
aS'broken_window'
p154
aS'broken_wings'
p155
aS'busy_bridge'
p156
aS'busy_business'
p157
aS'busy_city'
p158
aS'busy_crowd'
p159
aS'busy_river'
p160
aS'busy_street'
p161
aS'busy_train'
p162
aS'busy_worker'
p163
aS'calm_bay'
p164
aS'calm_beach'
p165
aS'calm_lake'
p166
aS'calm_nature'
p167
aS'calm_ocean'
p168
aS'calm_pool'
p169
aS'calm_river'
p170
aS'calm_scene'
p171
aS'calm_sea'
p172
aS'calm_serenity'
p173
aS'calm_sky'
p174
aS'calm_street'
p175
aS'calm_water'
p176
aS'calm_waves'
p177
aS'candid_girls'
p178
aS'candid_guy'
p179
aS'candid_men'
p180
aS'candid_smile'
p181
aS'candid_teen'
p182
aS'charming_city'
p183
aS'charming_house'
p184
aS'charming_lady'
p185
aS'charming_places'
p186
aS'charming_smile'
p187
aS'charming_street'
p188
aS'cheerful_face'
p189
aS'cheerful_flowers'
p190
aS'cheerful_smile'
p191
aS'christian_artist'
p192
aS'christian_band'
p193
aS'christian_bible'
p194
aS'christian_book'
p195
aS'christian_church'
p196
aS'christian_concert'
p197
aS'christian_cross'
p198
aS'christian_faith'
p199
aS'christian_festival'
p200
aS'christian_heritage'
p201
a.